target datalayout = "e-m:e-p270:32:32-p271:32:32-p272:64:64-i64:64-i128:128-f80:128-n8:16:32:64-S128"
target triple = "x86_64-pc-linux-gnu"

%struct._freshclam_dat_v1 = type { i32, [37 x i8], i64 }
%union.anon = type { %struct.anon }
%struct.anon = type { i32, i16, i16, i8, i8, [6 x i8] }

@g_freshclamDat = global ptr null, align 8
@.str.12 = private unnamed_addr constant [45 x i8] c"Failed to allocate memory for freshclam.dat\0A\00", align 1
@.str.28 = private unnamed_addr constant [28 x i8] c"Creating new freshclam.dat\0A\00", align 1
@.str.29 = private unnamed_addr constant [31 x i8] c"Failed to save freshclam.dat!\0A\00", align 1
@.str.75 = private unnamed_addr constant [49 x i8] c"%08x-%04x-%04x-%02x%02x-%02x%02x%02x%02x%02x%02x\00", align 1

; Function Attrs: nounwind uwtable
define internal void @uuid_v4_gen(ptr noundef %0) #0 {
  %2 = alloca ptr, align 8
  %3 = alloca %union.anon, align 4
  store ptr %0, ptr %2, align 8, !tbaa !12
  call void @llvm.lifetime.start.p0(i64 16, ptr %3) #13
  %4 = getelementptr inbounds [16 x i8], ptr %3, i64 0, i64 0
  %5 = call i32 @RAND_bytes(ptr noundef %4, i32 noundef 16)
  %6 = icmp sge i32 0, %5
  br i1 %6, label %7, label %12

7:                                                ; preds = %1
  %8 = getelementptr inbounds [16 x i8], ptr %3, i64 0, i64 0
  call void @llvm.memset.p0.i64(ptr align 4 %8, i8 0, i64 16, i1 false)
  %9 = call i64 @time(ptr noundef null) #13
  %10 = trunc i64 %9 to i32
  %11 = getelementptr inbounds nuw %struct.anon, ptr %3, i32 0, i32 0
  store i32 %10, ptr %11, align 4, !tbaa !19
  br label %12

12:                                               ; preds = %7, %1
  %13 = getelementptr inbounds nuw %struct.anon, ptr %3, i32 0, i32 3
  %14 = load i8, ptr %13, align 4, !tbaa !19
  %15 = zext i8 %14 to i32
  %16 = and i32 %15, 63
  %17 = or i32 %16, 128
  %18 = trunc i32 %17 to i8
  %19 = getelementptr inbounds nuw %struct.anon, ptr %3, i32 0, i32 3
  store i8 %18, ptr %19, align 4, !tbaa !19
  %20 = getelementptr inbounds nuw %struct.anon, ptr %3, i32 0, i32 2
  %21 = load i16, ptr %20, align 2, !tbaa !19
  %22 = zext i16 %21 to i32
  %23 = and i32 %22, 4095
  %24 = or i32 %23, 16384
  %25 = trunc i32 %24 to i16
  %26 = getelementptr inbounds nuw %struct.anon, ptr %3, i32 0, i32 2
  store i16 %25, ptr %26, align 2, !tbaa !19
  %27 = load ptr, ptr %2, align 8, !tbaa !12
  %28 = getelementptr inbounds nuw %struct.anon, ptr %3, i32 0, i32 0
  %29 = load i32, ptr %28, align 4, !tbaa !19
  %30 = getelementptr inbounds nuw %struct.anon, ptr %3, i32 0, i32 1
  %31 = load i16, ptr %30, align 4, !tbaa !19
  %32 = zext i16 %31 to i32
  %33 = getelementptr inbounds nuw %struct.anon, ptr %3, i32 0, i32 2
  %34 = load i16, ptr %33, align 2, !tbaa !19
  %35 = zext i16 %34 to i32
  %36 = getelementptr inbounds nuw %struct.anon, ptr %3, i32 0, i32 3
  %37 = load i8, ptr %36, align 4, !tbaa !19
  %38 = zext i8 %37 to i32
  %39 = getelementptr inbounds nuw %struct.anon, ptr %3, i32 0, i32 4
  %40 = load i8, ptr %39, align 1, !tbaa !19
  %41 = zext i8 %40 to i32
  %42 = getelementptr inbounds nuw %struct.anon, ptr %3, i32 0, i32 5
  %43 = getelementptr inbounds [6 x i8], ptr %42, i64 0, i64 0
  %44 = load i8, ptr %43, align 2, !tbaa !19
  %45 = zext i8 %44 to i32
  %46 = getelementptr inbounds nuw %struct.anon, ptr %3, i32 0, i32 5
  %47 = getelementptr inbounds [6 x i8], ptr %46, i64 0, i64 1
  %48 = load i8, ptr %47, align 1, !tbaa !19
  %49 = zext i8 %48 to i32
  %50 = getelementptr inbounds nuw %struct.anon, ptr %3, i32 0, i32 5
  %51 = getelementptr inbounds [6 x i8], ptr %50, i64 0, i64 2
  %52 = load i8, ptr %51, align 2, !tbaa !19
  %53 = zext i8 %52 to i32
  %54 = getelementptr inbounds nuw %struct.anon, ptr %3, i32 0, i32 5
  %55 = getelementptr inbounds [6 x i8], ptr %54, i64 0, i64 3
  %56 = load i8, ptr %55, align 1, !tbaa !19
  %57 = zext i8 %56 to i32
  %58 = getelementptr inbounds nuw %struct.anon, ptr %3, i32 0, i32 5
  %59 = getelementptr inbounds [6 x i8], ptr %58, i64 0, i64 4
  %60 = load i8, ptr %59, align 2, !tbaa !19
  %61 = zext i8 %60 to i32
  %62 = getelementptr inbounds nuw %struct.anon, ptr %3, i32 0, i32 5
  %63 = getelementptr inbounds [6 x i8], ptr %62, i64 0, i64 5
  %64 = load i8, ptr %63, align 1, !tbaa !19
  %65 = zext i8 %64 to i32
  %66 = call i32 (ptr, i64, ptr, ...) @snprintf(ptr noundef %27, i64 noundef 37, ptr noundef @.str.75, i32 noundef %29, i32 noundef %32, i32 noundef %35, i32 noundef %38, i32 noundef %41, i32 noundef %45, i32 noundef %49, i32 noundef %53, i32 noundef %57, i32 noundef %61, i32 noundef %65) #13
  %67 = load ptr, ptr %2, align 8, !tbaa !12
  %68 = getelementptr inbounds i8, ptr %67, i64 36
  store i8 0, ptr %68, align 1, !tbaa !19
  call void @llvm.lifetime.end.p0(i64 16, ptr %3) #13
  ret void
}

; Function Attrs: nounwind uwtable
define i32 @new_freshclam_dat() #0 {
  %1 = alloca i32, align 4
  %2 = alloca ptr, align 8
  call void @llvm.lifetime.start.p0(i64 4, ptr %1) #13
  store i32 2, ptr %1, align 4, !tbaa !3
  call void @llvm.lifetime.start.p0(i64 8, ptr %2) #13
  %3 = call noalias ptr @calloc(i64 noundef 1, i64 noundef 56) #17
  store ptr %3, ptr %2, align 8, !tbaa !9
  %4 = load ptr, ptr %2, align 8, !tbaa !9
  %5 = icmp eq ptr null, %4
  br i1 %5, label %6, label %8

6:                                                ; preds = %0
  %7 = call i32 (i32, ptr, ...) @logg(i32 noundef 5, ptr noundef @.str.12)
  store i32 15, ptr %1, align 4, !tbaa !3
  br label %28

8:                                                ; preds = %0
  %9 = load ptr, ptr %2, align 8, !tbaa !9
  %10 = getelementptr inbounds nuw %struct._freshclam_dat_v1, ptr %9, i32 0, i32 0
  store i32 1, ptr %10, align 8, !tbaa !14
  %11 = load ptr, ptr %2, align 8, !tbaa !9
  %12 = getelementptr inbounds nuw %struct._freshclam_dat_v1, ptr %11, i32 0, i32 2
  store i64 0, ptr %12, align 8, !tbaa !16
  %13 = load ptr, ptr %2, align 8, !tbaa !9
  %14 = getelementptr inbounds nuw %struct._freshclam_dat_v1, ptr %13, i32 0, i32 1
  %15 = getelementptr inbounds [37 x i8], ptr %14, i64 0, i64 0
  call void @uuid_v4_gen(ptr noundef %15)
  %16 = load ptr, ptr @g_freshclamDat, align 8, !tbaa !9
  %17 = icmp ne ptr null, %16
  br i1 %17, label %18, label %20

18:                                               ; preds = %8
  %19 = load ptr, ptr @g_freshclamDat, align 8, !tbaa !9
  call void @free(ptr noundef %19) #13
  br label %20

20:                                               ; preds = %18, %8
  %21 = load ptr, ptr %2, align 8, !tbaa !9
  store ptr %21, ptr @g_freshclamDat, align 8, !tbaa !9
  %22 = call i32 (i32, ptr, ...) @logg(i32 noundef 2, ptr noundef @.str.28)
  %23 = call i32 @save_freshclam_dat()
  %24 = icmp ne i32 0, %23
  br i1 %24, label %25, label %27

25:                                               ; preds = %20
  %26 = call i32 (i32, ptr, ...) @logg(i32 noundef 5, ptr noundef @.str.29)
  store i32 4, ptr %1, align 4, !tbaa !3
  br label %28

27:                                               ; preds = %20
  store i32 0, ptr %1, align 4, !tbaa !3
  br label %28

28:                                               ; preds = %27, %25, %6
  %29 = load i32, ptr %1, align 4, !tbaa !3
  %30 = icmp ne i32 0, %29
  br i1 %30, label %31, label %37

31:                                               ; preds = %28
  %32 = load ptr, ptr %2, align 8, !tbaa !9
  %33 = icmp ne ptr null, %32
  br i1 %33, label %34, label %36

34:                                               ; preds = %31
  %35 = load ptr, ptr %2, align 8, !tbaa !9
  call void @free(ptr noundef %35) #13
  br label %36

36:                                               ; preds = %34, %31
  store ptr null, ptr @g_freshclamDat, align 8, !tbaa !9
  br label %37

37:                                               ; preds = %36, %28
  %38 = load i32, ptr %1, align 4, !tbaa !3
  call void @llvm.lifetime.end.p0(i64 8, ptr %2) #13
  call void @llvm.lifetime.end.p0(i64 4, ptr %1) #13
  ret i32 %38
}