; Function Attrs: nounwind uwtable
define range(i32 0, 16) i32 @new_freshclam_dat() local_unnamed_addr #0 {
  %1 = alloca %union.anon, align 4
  %2 = tail call noalias dereferenceable_or_null(56) ptr @calloc(i64 noundef 1, i64 noundef 56) #27
  %3 = icmp eq ptr %2, null
  br i1 %3, label %.thread17, label %5

.thread17:                                        ; preds = %0
  %4 = tail call i32 (i32, ptr, ...) @logg(i32 noundef 5, ptr noundef nonnull @.str.12) #24
  br label %56

5:                                                ; preds = %0
  store i32 1, ptr %2, align 8, !tbaa !12
  %6 = getelementptr inbounds nuw i8, ptr %2, i64 4
  call void @llvm.lifetime.start.p0(i64 16, ptr nonnull %1) #24
  %7 = call i32 @RAND_bytes(ptr noundef nonnull %1, i32 noundef 16) #24
  %8 = icmp slt i32 %7, 1
  br i1 %8, label %9, label %._crit_edge.i

._crit_edge.i:                                    ; preds = %5
  %.pre.i = load i32, ptr %1, align 4, !tbaa !16
  br label %uuid_v4_gen.exit

9:                                                ; preds = %5
  call void @llvm.memset.p0.i64(ptr noundef nonnull align 4 dereferenceable(16) %1, i8 0, i64 16, i1 false)
  %10 = call i64 @time(ptr noundef null) #24
  %11 = trunc i64 %10 to i32
  store i32 %11, ptr %1, align 4, !tbaa !16
  br label %uuid_v4_gen.exit

uuid_v4_gen.exit:                                 ; preds = %._crit_edge.i, %9
  %12 = phi i32 [ %.pre.i, %._crit_edge.i ], [ %11, %9 ]
  %13 = getelementptr inbounds nuw i8, ptr %1, i64 8
  %14 = load i8, ptr %13, align 4, !tbaa !16
  %15 = and i8 %14, 63
  %16 = or disjoint i8 %15, -128
  store i8 %16, ptr %13, align 4, !tbaa !16
  %17 = getelementptr inbounds nuw i8, ptr %1, i64 6
  %18 = load i16, ptr %17, align 2, !tbaa !16
  %19 = and i16 %18, 4095
  %20 = or disjoint i16 %19, 16384
  store i16 %20, ptr %17, align 2, !tbaa !16
  %21 = getelementptr inbounds nuw i8, ptr %1, i64 4
  %22 = load i16, ptr %21, align 4, !tbaa !16
  %23 = zext i16 %22 to i32
  %24 = zext nneg i16 %20 to i32
  %25 = zext i8 %16 to i32
  %26 = getelementptr inbounds nuw i8, ptr %1, i64 9
  %27 = load i8, ptr %26, align 1, !tbaa !16
  %28 = zext i8 %27 to i32
  %29 = getelementptr inbounds nuw i8, ptr %1, i64 10
  %30 = load i8, ptr %29, align 2, !tbaa !16
  %31 = zext i8 %30 to i32
  %32 = getelementptr inbounds nuw i8, ptr %1, i64 11
  %33 = load i8, ptr %32, align 1, !tbaa !16
  %34 = zext i8 %33 to i32
  %35 = getelementptr inbounds nuw i8, ptr %1, i64 12
  %36 = load i8, ptr %35, align 4, !tbaa !16
  %37 = zext i8 %36 to i32
  %38 = getelementptr inbounds nuw i8, ptr %1, i64 13
  %39 = load i8, ptr %38, align 1, !tbaa !16
  %40 = zext i8 %39 to i32
  %41 = getelementptr inbounds nuw i8, ptr %1, i64 14
  %42 = load i8, ptr %41, align 2, !tbaa !16
  %43 = zext i8 %42 to i32
  %44 = getelementptr inbounds nuw i8, ptr %1, i64 15
  %45 = load i8, ptr %44, align 1, !tbaa !16
  %46 = zext i8 %45 to i32
  %47 = call i32 (ptr, i64, ptr, ...) @snprintf(ptr noundef nonnull dereferenceable(1) %6, i64 noundef 37, ptr noundef nonnull @.str.75, i32 noundef %12, i32 noundef %23, i32 noundef %24, i32 noundef %25, i32 noundef %28, i32 noundef %31, i32 noundef %34, i32 noundef %37, i32 noundef %40, i32 noundef %43, i32 noundef %46) #24
  %48 = getelementptr inbounds nuw i8, ptr %2, i64 40
  store i8 0, ptr %48, align 1, !tbaa !16
  call void @llvm.lifetime.end.p0(i64 16, ptr nonnull %1) #24
  %49 = load ptr, ptr @g_freshclamDat, align 8, !tbaa !10
  %.not = icmp eq ptr %49, null
  br i1 %.not, label %51, label %50

50:                                               ; preds = %uuid_v4_gen.exit
  call void @free(ptr noundef nonnull %49) #24
  br label %51

51:                                               ; preds = %50, %uuid_v4_gen.exit
  store ptr %2, ptr @g_freshclamDat, align 8, !tbaa !10
  %52 = call i32 (i32, ptr, ...) @logg(i32 noundef 2, ptr noundef nonnull @.str.28) #24
  %53 = call i32 @save_freshclam_dat()
  %.not10 = icmp eq i32 %53, 0
  br i1 %.not10, label %57, label %54

54:                                               ; preds = %51
  %55 = call i32 (i32, ptr, ...) @logg(i32 noundef 5, ptr noundef nonnull @.str.29) #24
  call void @free(ptr noundef nonnull %2) #24
  br label %56

56:                                               ; preds = %.thread17, %54
  %.0.ph19 = phi i32 [ 15, %.thread17 ], [ 4, %54 ]
  store ptr null, ptr @g_freshclamDat, align 8, !tbaa !10
  br label %57

57:                                               ; preds = %51, %56
  %.016 = phi i32 [ %.0.ph19, %56 ], [ 0, %51 ]
  ret i32 %.016
}